target datalayout = "e-m:e-p270:32:32-p271:32:32-p272:64:64-i64:64-i128:128-f80:128-n8:16:32:64-S128"
target triple = "x86_64-pc-linux-gnu"

%struct.cli_ctx_tag = type { ptr, ptr, ptr, ptr, ptr, ptr, ptr, i64, ptr, i32, i32, ptr, i32, i32, ptr, [16 x i8], ptr, ptr, ptr, ptr, ptr, ptr, %struct.timeval, i8, i8 }
%struct.timeval = type { i64, i64 }
%struct.cl_fmap = type { ptr, ptr, ptr, i64, i64, i64, i64, i8, i8, i8, i64, i64, i64, i64, ptr, ptr, ptr, ptr, ptr, ptr, ptr, i8, [16 x i8], i8, [20 x i8], i8, [32 x i8], ptr, ptr }

@.str = private unnamed_addr constant [27 x i8] c"in cli_check_mydoom_log()\0A\00", align 1
@.str.1 = private unnamed_addr constant [29 x i8] c"Heuristics.Worm.Mydoom.M.log\00", align 1

; Function Attrs: nounwind uwtable
define internal ptr @fmap_need_off_once(ptr noundef %0, i64 noundef %1, i64 noundef %2) #0 {
  %4 = alloca ptr, align 8
  %5 = alloca i64, align 8
  %6 = alloca i64, align 8
  store ptr %0, ptr %4, align 8
  store i64 %1, ptr %5, align 8
  store i64 %2, ptr %6, align 8
  %7 = load ptr, ptr %4, align 8
  %8 = getelementptr inbounds %struct.cl_fmap, ptr %7, i32 0, i32 15
  %9 = load ptr, ptr %8, align 8
  %10 = load ptr, ptr %4, align 8
  %11 = load i64, ptr %5, align 8
  %12 = load i64, ptr %6, align 8
  %13 = call ptr %9(ptr noundef %10, i64 noundef %11, i64 noundef %12, i32 noundef 0)
  ret ptr %13
}

; Function Attrs: nounwind uwtable
define i32 @cli_check_mydoom_log(ptr noundef %0) #0 {
  %2 = alloca i32, align 4
  %3 = alloca ptr, align 8
  %4 = alloca ptr, align 8
  %5 = alloca i32, align 4
  %6 = alloca i32, align 4
  %7 = alloca ptr, align 8
  %8 = alloca i32, align 4
  store ptr %0, ptr %3, align 8
  %9 = load ptr, ptr %3, align 8
  %10 = getelementptr inbounds %struct.cli_ctx_tag, ptr %9, i32 0, i32 14
  %11 = load ptr, ptr %10, align 8
  store ptr %11, ptr %7, align 8
  %12 = load ptr, ptr %7, align 8
  %13 = getelementptr inbounds %struct.cl_fmap, ptr %12, i32 0, i32 13
  %14 = load i64, ptr %13, align 8
  %15 = udiv i64 %14, 32
  %16 = trunc i64 %15 to i32
  store i32 %16, ptr %8, align 4
  call void (ptr, ...) @cli_dbgmsg(ptr noundef @.str)
  %17 = load i32, ptr %8, align 4
  %18 = icmp ult i32 %17, 2
  br i1 %18, label %19, label %20

19:                                               ; preds = %1
  store i32 0, ptr %2, align 4
  br label %472

20:                                               ; preds = %1
  %21 = load i32, ptr %8, align 4
  %22 = icmp ugt i32 %21, 5
  br i1 %22, label %23, label %24

23:                                               ; preds = %20
  store i32 5, ptr %8, align 4
  br label %24

24:                                               ; preds = %23, %20
  %25 = load ptr, ptr %7, align 8
  %26 = load i32, ptr %8, align 4
  %27 = mul i32 32, %26
  %28 = zext i32 %27 to i64
  %29 = call ptr @fmap_need_off_once(ptr noundef %25, i64 noundef 0, i64 noundef %28)
  store ptr %29, ptr %4, align 8
  %30 = load ptr, ptr %4, align 8
  %31 = icmp ne ptr %30, null
  br i1 %31, label %33, label %32

32:                                               ; preds = %24
  store i32 0, ptr %2, align 4
  br label %472

33:                                               ; preds = %24
  br label %34

34:                                               ; preds = %46, %33
  %35 = load i32, ptr %8, align 4
  %36 = icmp ne i32 %35, 0
  br i1 %36, label %37, label %47

37:                                               ; preds = %34
  %38 = load ptr, ptr %4, align 8
  %39 = load i32, ptr %8, align 4
  %40 = add i32 %39, -1
  store i32 %40, ptr %8, align 4
  %41 = zext i32 %40 to i64
  %42 = getelementptr inbounds i32, ptr %38, i64 %41
  %43 = load i32, ptr %42, align 4
  %44 = icmp eq i32 %43, -1
  br i1 %44, label %45, label %46

45:                                               ; preds = %37
  store i32 0, ptr %2, align 4
  br label %472

46:                                               ; preds = %37
  br label %34

47:                                               ; preds = %34
  %48 = load ptr, ptr %4, align 8
  %49 = getelementptr inbounds i32, ptr %48, i64 0
  %50 = load i32, ptr %49, align 4
  %51 = and i32 %50, 255
  %52 = shl i32 %51, 24
  %53 = load ptr, ptr %4, align 8
  %54 = getelementptr inbounds i32, ptr %53, i64 0
  %55 = load i32, ptr %54, align 4
  %56 = and i32 %55, 65280
  %57 = shl i32 %56, 8
  %58 = or i32 %52, %57
  %59 = load ptr, ptr %4, align 8
  %60 = getelementptr inbounds i32, ptr %59, i64 0
  %61 = load i32, ptr %60, align 4
  %62 = and i32 %61, 16711680
  %63 = lshr i32 %62, 8
  %64 = or i32 %58, %63
  %65 = load ptr, ptr %4, align 8
  %66 = getelementptr inbounds i32, ptr %65, i64 0
  %67 = load i32, ptr %66, align 4
  %68 = and i32 %67, -16777216
  %69 = lshr i32 %68, 24
  %70 = or i32 %64, %69
  %71 = xor i32 %70, -1
  store i32 %71, ptr %6, align 4
  %72 = load ptr, ptr %4, align 8
  %73 = getelementptr inbounds i32, ptr %72, i64 1
  %74 = load i32, ptr %73, align 4
  %75 = and i32 %74, 255
  %76 = shl i32 %75, 24
  %77 = load ptr, ptr %4, align 8
  %78 = getelementptr inbounds i32, ptr %77, i64 1
  %79 = load i32, ptr %78, align 4
  %80 = and i32 %79, 65280
  %81 = shl i32 %80, 8
  %82 = or i32 %76, %81
  %83 = load ptr, ptr %4, align 8
  %84 = getelementptr inbounds i32, ptr %83, i64 1
  %85 = load i32, ptr %84, align 4
  %86 = and i32 %85, 16711680
  %87 = lshr i32 %86, 8
  %88 = or i32 %82, %87
  %89 = load ptr, ptr %4, align 8
  %90 = getelementptr inbounds i32, ptr %89, i64 1
  %91 = load i32, ptr %90, align 4
  %92 = and i32 %91, -16777216
  %93 = lshr i32 %92, 24
  %94 = or i32 %88, %93
  %95 = load i32, ptr %6, align 4
  %96 = xor i32 %94, %95
  %97 = load ptr, ptr %4, align 8
  %98 = getelementptr inbounds i32, ptr %97, i64 2
  %99 = load i32, ptr %98, align 4
  %100 = and i32 %99, 255
  %101 = shl i32 %100, 24
  %102 = load ptr, ptr %4, align 8
  %103 = getelementptr inbounds i32, ptr %102, i64 2
  %104 = load i32, ptr %103, align 4
  %105 = and i32 %104, 65280
  %106 = shl i32 %105, 8
  %107 = or i32 %101, %106
  %108 = load ptr, ptr %4, align 8
  %109 = getelementptr inbounds i32, ptr %108, i64 2
  %110 = load i32, ptr %109, align 4
  %111 = and i32 %110, 16711680
  %112 = lshr i32 %111, 8
  %113 = or i32 %107, %112
  %114 = load ptr, ptr %4, align 8
  %115 = getelementptr inbounds i32, ptr %114, i64 2
  %116 = load i32, ptr %115, align 4
  %117 = and i32 %116, -16777216
  %118 = lshr i32 %117, 24
  %119 = or i32 %113, %118
  %120 = load i32, ptr %6, align 4
  %121 = xor i32 %119, %120
  %122 = add i32 %96, %121
  %123 = load ptr, ptr %4, align 8
  %124 = getelementptr inbounds i32, ptr %123, i64 3
  %125 = load i32, ptr %124, align 4
  %126 = and i32 %125, 255
  %127 = shl i32 %126, 24
  %128 = load ptr, ptr %4, align 8
  %129 = getelementptr inbounds i32, ptr %128, i64 3
  %130 = load i32, ptr %129, align 4
  %131 = and i32 %130, 65280
  %132 = shl i32 %131, 8
  %133 = or i32 %127, %132
  %134 = load ptr, ptr %4, align 8
  %135 = getelementptr inbounds i32, ptr %134, i64 3
  %136 = load i32, ptr %135, align 4
  %137 = and i32 %136, 16711680
  %138 = lshr i32 %137, 8
  %139 = or i32 %133, %138
  %140 = load ptr, ptr %4, align 8
  %141 = getelementptr inbounds i32, ptr %140, i64 3
  %142 = load i32, ptr %141, align 4
  %143 = and i32 %142, -16777216
  %144 = lshr i32 %143, 24
  %145 = or i32 %139, %144
  %146 = load i32, ptr %6, align 4
  %147 = xor i32 %145, %146
  %148 = add i32 %122, %147
  %149 = load ptr, ptr %4, align 8
  %150 = getelementptr inbounds i32, ptr %149, i64 4
  %151 = load i32, ptr %150, align 4
  %152 = and i32 %151, 255
  %153 = shl i32 %152, 24
  %154 = load ptr, ptr %4, align 8
  %155 = getelementptr inbounds i32, ptr %154, i64 4
  %156 = load i32, ptr %155, align 4
  %157 = and i32 %156, 65280
  %158 = shl i32 %157, 8
  %159 = or i32 %153, %158
  %160 = load ptr, ptr %4, align 8
  %161 = getelementptr inbounds i32, ptr %160, i64 4
  %162 = load i32, ptr %161, align 4
  %163 = and i32 %162, 16711680
  %164 = lshr i32 %163, 8
  %165 = or i32 %159, %164
  %166 = load ptr, ptr %4, align 8
  %167 = getelementptr inbounds i32, ptr %166, i64 4
  %168 = load i32, ptr %167, align 4
  %169 = and i32 %168, -16777216
  %170 = lshr i32 %169, 24
  %171 = or i32 %165, %170
  %172 = load i32, ptr %6, align 4
  %173 = xor i32 %171, %172
  %174 = add i32 %148, %173
  %175 = load ptr, ptr %4, align 8
  %176 = getelementptr inbounds i32, ptr %175, i64 5
  %177 = load i32, ptr %176, align 4
  %178 = and i32 %177, 255
  %179 = shl i32 %178, 24
  %180 = load ptr, ptr %4, align 8
  %181 = getelementptr inbounds i32, ptr %180, i64 5
  %182 = load i32, ptr %181, align 4
  %183 = and i32 %182, 65280
  %184 = shl i32 %183, 8
  %185 = or i32 %179, %184
  %186 = load ptr, ptr %4, align 8
  %187 = getelementptr inbounds i32, ptr %186, i64 5
  %188 = load i32, ptr %187, align 4
  %189 = and i32 %188, 16711680
  %190 = lshr i32 %189, 8
  %191 = or i32 %185, %190
  %192 = load ptr, ptr %4, align 8
  %193 = getelementptr inbounds i32, ptr %192, i64 5
  %194 = load i32, ptr %193, align 4
  %195 = and i32 %194, -16777216
  %196 = lshr i32 %195, 24
  %197 = or i32 %191, %196
  %198 = load i32, ptr %6, align 4
  %199 = xor i32 %197, %198
  %200 = add i32 %174, %199
  %201 = load ptr, ptr %4, align 8
  %202 = getelementptr inbounds i32, ptr %201, i64 6
  %203 = load i32, ptr %202, align 4
  %204 = and i32 %203, 255
  %205 = shl i32 %204, 24
  %206 = load ptr, ptr %4, align 8
  %207 = getelementptr inbounds i32, ptr %206, i64 6
  %208 = load i32, ptr %207, align 4
  %209 = and i32 %208, 65280
  %210 = shl i32 %209, 8
  %211 = or i32 %205, %210
  %212 = load ptr, ptr %4, align 8
  %213 = getelementptr inbounds i32, ptr %212, i64 6
  %214 = load i32, ptr %213, align 4
  %215 = and i32 %214, 16711680
  %216 = lshr i32 %215, 8
  %217 = or i32 %211, %216
  %218 = load ptr, ptr %4, align 8
  %219 = getelementptr inbounds i32, ptr %218, i64 6
  %220 = load i32, ptr %219, align 4
  %221 = and i32 %220, -16777216
  %222 = lshr i32 %221, 24
  %223 = or i32 %217, %222
  %224 = load i32, ptr %6, align 4
  %225 = xor i32 %223, %224
  %226 = add i32 %200, %225
  %227 = load ptr, ptr %4, align 8
  %228 = getelementptr inbounds i32, ptr %227, i64 7
  %229 = load i32, ptr %228, align 4
  %230 = and i32 %229, 255
  %231 = shl i32 %230, 24
  %232 = load ptr, ptr %4, align 8
  %233 = getelementptr inbounds i32, ptr %232, i64 7
  %234 = load i32, ptr %233, align 4
  %235 = and i32 %234, 65280
  %236 = shl i32 %235, 8
  %237 = or i32 %231, %236
  %238 = load ptr, ptr %4, align 8
  %239 = getelementptr inbounds i32, ptr %238, i64 7
  %240 = load i32, ptr %239, align 4
  %241 = and i32 %240, 16711680
  %242 = lshr i32 %241, 8
  %243 = or i32 %237, %242
  %244 = load ptr, ptr %4, align 8
  %245 = getelementptr inbounds i32, ptr %244, i64 7
  %246 = load i32, ptr %245, align 4
  %247 = and i32 %246, -16777216
  %248 = lshr i32 %247, 24
  %249 = or i32 %243, %248
  %250 = load i32, ptr %6, align 4
  %251 = xor i32 %249, %250
  %252 = add i32 %226, %251
  store i32 %252, ptr %5, align 4
  %253 = load i32, ptr %5, align 4
  %254 = xor i32 %253, -1
  %255 = load i32, ptr %6, align 4
  %256 = icmp ne i32 %254, %255
  br i1 %256, label %257, label %258

257:                                              ; preds = %47
  store i32 0, ptr %2, align 4
  br label %472

258:                                              ; preds = %47
  %259 = load ptr, ptr %4, align 8
  %260 = getelementptr inbounds i32, ptr %259, i64 8
  %261 = load i32, ptr %260, align 4
  %262 = and i32 %261, 255
  %263 = shl i32 %262, 24
  %264 = load ptr, ptr %4, align 8
  %265 = getelementptr inbounds i32, ptr %264, i64 8
  %266 = load i32, ptr %265, align 4
  %267 = and i32 %266, 65280
  %268 = shl i32 %267, 8
  %269 = or i32 %263, %268
  %270 = load ptr, ptr %4, align 8
  %271 = getelementptr inbounds i32, ptr %270, i64 8
  %272 = load i32, ptr %271, align 4
  %273 = and i32 %272, 16711680
  %274 = lshr i32 %273, 8
  %275 = or i32 %269, %274
  %276 = load ptr, ptr %4, align 8
  %277 = getelementptr inbounds i32, ptr %276, i64 8
  %278 = load i32, ptr %277, align 4
  %279 = and i32 %278, -16777216
  %280 = lshr i32 %279, 24
  %281 = or i32 %275, %280
  %282 = xor i32 %281, -1
  store i32 %282, ptr %6, align 4
  %283 = load ptr, ptr %4, align 8
  %284 = getelementptr inbounds i32, ptr %283, i64 9
  %285 = load i32, ptr %284, align 4
  %286 = and i32 %285, 255
  %287 = shl i32 %286, 24
  %288 = load ptr, ptr %4, align 8
  %289 = getelementptr inbounds i32, ptr %288, i64 9
  %290 = load i32, ptr %289, align 4
  %291 = and i32 %290, 65280
  %292 = shl i32 %291, 8
  %293 = or i32 %287, %292
  %294 = load ptr, ptr %4, align 8
  %295 = getelementptr inbounds i32, ptr %294, i64 9
  %296 = load i32, ptr %295, align 4
  %297 = and i32 %296, 16711680
  %298 = lshr i32 %297, 8
  %299 = or i32 %293, %298
  %300 = load ptr, ptr %4, align 8
  %301 = getelementptr inbounds i32, ptr %300, i64 9
  %302 = load i32, ptr %301, align 4
  %303 = and i32 %302, -16777216
  %304 = lshr i32 %303, 24
  %305 = or i32 %299, %304
  %306 = load i32, ptr %6, align 4
  %307 = xor i32 %305, %306
  %308 = load ptr, ptr %4, align 8
  %309 = getelementptr inbounds i32, ptr %308, i64 10
  %310 = load i32, ptr %309, align 4
  %311 = and i32 %310, 255
  %312 = shl i32 %311, 24
  %313 = load ptr, ptr %4, align 8
  %314 = getelementptr inbounds i32, ptr %313, i64 10
  %315 = load i32, ptr %314, align 4
  %316 = and i32 %315, 65280
  %317 = shl i32 %316, 8
  %318 = or i32 %312, %317
  %319 = load ptr, ptr %4, align 8
  %320 = getelementptr inbounds i32, ptr %319, i64 10
  %321 = load i32, ptr %320, align 4
  %322 = and i32 %321, 16711680
  %323 = lshr i32 %322, 8
  %324 = or i32 %318, %323
  %325 = load ptr, ptr %4, align 8
  %326 = getelementptr inbounds i32, ptr %325, i64 10
  %327 = load i32, ptr %326, align 4
  %328 = and i32 %327, -16777216
  %329 = lshr i32 %328, 24
  %330 = or i32 %324, %329
  %331 = load i32, ptr %6, align 4
  %332 = xor i32 %330, %331
  %333 = add i32 %307, %332
  %334 = load ptr, ptr %4, align 8
  %335 = getelementptr inbounds i32, ptr %334, i64 11
  %336 = load i32, ptr %335, align 4
  %337 = and i32 %336, 255
  %338 = shl i32 %337, 24
  %339 = load ptr, ptr %4, align 8
  %340 = getelementptr inbounds i32, ptr %339, i64 11
  %341 = load i32, ptr %340, align 4
  %342 = and i32 %341, 65280
  %343 = shl i32 %342, 8
  %344 = or i32 %338, %343
  %345 = load ptr, ptr %4, align 8
  %346 = getelementptr inbounds i32, ptr %345, i64 11
  %347 = load i32, ptr %346, align 4
  %348 = and i32 %347, 16711680
  %349 = lshr i32 %348, 8
  %350 = or i32 %344, %349
  %351 = load ptr, ptr %4, align 8
  %352 = getelementptr inbounds i32, ptr %351, i64 11
  %353 = load i32, ptr %352, align 4
  %354 = and i32 %353, -16777216
  %355 = lshr i32 %354, 24
  %356 = or i32 %350, %355
  %357 = load i32, ptr %6, align 4
  %358 = xor i32 %356, %357
  %359 = add i32 %333, %358
  %360 = load ptr, ptr %4, align 8
  %361 = getelementptr inbounds i32, ptr %360, i64 12
  %362 = load i32, ptr %361, align 4
  %363 = and i32 %362, 255
  %364 = shl i32 %363, 24
  %365 = load ptr, ptr %4, align 8
  %366 = getelementptr inbounds i32, ptr %365, i64 12
  %367 = load i32, ptr %366, align 4
  %368 = and i32 %367, 65280
  %369 = shl i32 %368, 8
  %370 = or i32 %364, %369
  %371 = load ptr, ptr %4, align 8
  %372 = getelementptr inbounds i32, ptr %371, i64 12
  %373 = load i32, ptr %372, align 4
  %374 = and i32 %373, 16711680
  %375 = lshr i32 %374, 8
  %376 = or i32 %370, %375
  %377 = load ptr, ptr %4, align 8
  %378 = getelementptr inbounds i32, ptr %377, i64 12
  %379 = load i32, ptr %378, align 4
  %380 = and i32 %379, -16777216
  %381 = lshr i32 %380, 24
  %382 = or i32 %376, %381
  %383 = load i32, ptr %6, align 4
  %384 = xor i32 %382, %383
  %385 = add i32 %359, %384
  %386 = load ptr, ptr %4, align 8
  %387 = getelementptr inbounds i32, ptr %386, i64 13
  %388 = load i32, ptr %387, align 4
  %389 = and i32 %388, 255
  %390 = shl i32 %389, 24
  %391 = load ptr, ptr %4, align 8
  %392 = getelementptr inbounds i32, ptr %391, i64 13
  %393 = load i32, ptr %392, align 4
  %394 = and i32 %393, 65280
  %395 = shl i32 %394, 8
  %396 = or i32 %390, %395
  %397 = load ptr, ptr %4, align 8
  %398 = getelementptr inbounds i32, ptr %397, i64 13
  %399 = load i32, ptr %398, align 4
  %400 = and i32 %399, 16711680
  %401 = lshr i32 %400, 8
  %402 = or i32 %396, %401
  %403 = load ptr, ptr %4, align 8
  %404 = getelementptr inbounds i32, ptr %403, i64 13
  %405 = load i32, ptr %404, align 4
  %406 = and i32 %405, -16777216
  %407 = lshr i32 %406, 24
  %408 = or i32 %402, %407
  %409 = load i32, ptr %6, align 4
  %410 = xor i32 %408, %409
  %411 = add i32 %385, %410
  %412 = load ptr, ptr %4, align 8
  %413 = getelementptr inbounds i32, ptr %412, i64 14
  %414 = load i32, ptr %413, align 4
  %415 = and i32 %414, 255
  %416 = shl i32 %415, 24
  %417 = load ptr, ptr %4, align 8
  %418 = getelementptr inbounds i32, ptr %417, i64 14
  %419 = load i32, ptr %418, align 4
  %420 = and i32 %419, 65280
  %421 = shl i32 %420, 8
  %422 = or i32 %416, %421
  %423 = load ptr, ptr %4, align 8
  %424 = getelementptr inbounds i32, ptr %423, i64 14
  %425 = load i32, ptr %424, align 4
  %426 = and i32 %425, 16711680
  %427 = lshr i32 %426, 8
  %428 = or i32 %422, %427
  %429 = load ptr, ptr %4, align 8
  %430 = getelementptr inbounds i32, ptr %429, i64 14
  %431 = load i32, ptr %430, align 4
  %432 = and i32 %431, -16777216
  %433 = lshr i32 %432, 24
  %434 = or i32 %428, %433
  %435 = load i32, ptr %6, align 4
  %436 = xor i32 %434, %435
  %437 = add i32 %411, %436
  %438 = load ptr, ptr %4, align 8
  %439 = getelementptr inbounds i32, ptr %438, i64 15
  %440 = load i32, ptr %439, align 4
  %441 = and i32 %440, 255
  %442 = shl i32 %441, 24
  %443 = load ptr, ptr %4, align 8
  %444 = getelementptr inbounds i32, ptr %443, i64 15
  %445 = load i32, ptr %444, align 4
  %446 = and i32 %445, 65280
  %447 = shl i32 %446, 8
  %448 = or i32 %442, %447
  %449 = load ptr, ptr %4, align 8
  %450 = getelementptr inbounds i32, ptr %449, i64 15
  %451 = load i32, ptr %450, align 4
  %452 = and i32 %451, 16711680
  %453 = lshr i32 %452, 8
  %454 = or i32 %448, %453
  %455 = load ptr, ptr %4, align 8
  %456 = getelementptr inbounds i32, ptr %455, i64 15
  %457 = load i32, ptr %456, align 4
  %458 = and i32 %457, -16777216
  %459 = lshr i32 %458, 24
  %460 = or i32 %454, %459
  %461 = load i32, ptr %6, align 4
  %462 = xor i32 %460, %461
  %463 = add i32 %437, %462
  store i32 %463, ptr %5, align 4
  %464 = load i32, ptr %5, align 4
  %465 = xor i32 %464, -1
  %466 = load i32, ptr %6, align 4
  %467 = icmp ne i32 %465, %466
  br i1 %467, label %468, label %469

468:                                              ; preds = %258
  store i32 0, ptr %2, align 4
  br label %472

469:                                              ; preds = %258
  %470 = load ptr, ptr %3, align 8
  %471 = call i32 @cli_append_potentially_unwanted(ptr noundef %470, ptr noundef @.str.1)
  store i32 %471, ptr %2, align 4
  br label %472

472:                                              ; preds = %469, %468, %257, %45, %32, %19
  %473 = load i32, ptr %2, align 4
  ret i32 %473
}