; Function Attrs: nounwind uwtable
define i32 @cli_check_mydoom_log(ptr noundef %0) local_unnamed_addr #0 {
  %2 = getelementptr inbounds i8, ptr %0, i64 96
  %3 = load ptr, ptr %2, align 8
  %4 = getelementptr inbounds i8, ptr %3, i64 88
  %5 = load i64, ptr %4, align 8
  %6 = lshr i64 %5, 5
  %7 = trunc i64 %6 to i32
  tail call void (ptr, ...) @cli_dbgmsg(ptr noundef nonnull @.str) #7
  %8 = icmp ult i32 %7, 2
  br i1 %8, label %.loopexit, label %9

9:                                                ; preds = %1
  %spec.store.select = tail call i32 @llvm.umin.i32(i32 %7, i32 5)
  %10 = shl nuw nsw i32 %spec.store.select, 5
  %11 = zext nneg i32 %10 to i64
  %12 = getelementptr inbounds i8, ptr %3, i64 104
  %13 = load ptr, ptr %12, align 8
  %14 = tail call ptr %13(ptr noundef nonnull %3, i64 noundef 0, i64 noundef %11, i32 noundef 0) #7
  %.not = icmp eq ptr %14, null
  br i1 %.not, label %.loopexit, label %.preheader.preheader

.preheader.preheader:                             ; preds = %9
  %15 = and i64 %6, 4294967295
  %umin = tail call i64 @llvm.umin.i64(i64 %15, i64 5)
  br label %.preheader

.preheader:                                       ; preds = %.preheader.preheader, %16
  %indvars.iv = phi i64 [ %umin, %.preheader.preheader ], [ %17, %16 ]
  %.not95 = icmp eq i64 %indvars.iv, 0
  br i1 %.not95, label %21, label %16

16:                                               ; preds = %.preheader
  %17 = add nsw i64 %indvars.iv, -1
  %18 = getelementptr inbounds i32, ptr %14, i64 %17
  %19 = load i32, ptr %18, align 4
  %20 = icmp eq i32 %19, -1
  br i1 %20, label %.loopexit, label %.preheader

21:                                               ; preds = %.preheader
  %22 = load i32, ptr %14, align 4
  %23 = xor i32 %22, -1
  %24 = tail call i32 @llvm.bswap.i32(i32 %23)
  %25 = getelementptr inbounds i8, ptr %14, i64 4
  %26 = load <4 x i32>, ptr %25, align 4
  %27 = tail call <4 x i32> @llvm.bswap.v4i32(<4 x i32> %26)
  %28 = insertelement <4 x i32> poison, i32 %24, i64 0
  %29 = shufflevector <4 x i32> %28, <4 x i32> poison, <4 x i32> zeroinitializer
  %30 = xor <4 x i32> %27, %29
  %31 = getelementptr inbounds i8, ptr %14, i64 20
  %32 = load i32, ptr %31, align 4
  %33 = tail call i32 @llvm.bswap.i32(i32 %32)
  %34 = xor i32 %33, %24
  %35 = getelementptr inbounds i8, ptr %14, i64 24
  %36 = load i32, ptr %35, align 4
  %37 = tail call i32 @llvm.bswap.i32(i32 %36)
  %38 = xor i32 %37, %24
  %39 = getelementptr inbounds i8, ptr %14, i64 28
  %40 = load i32, ptr %39, align 4
  %41 = tail call i32 @llvm.bswap.i32(i32 %40)
  %42 = xor i32 %41, %24
  %43 = tail call i32 @llvm.vector.reduce.add.v4i32(<4 x i32> %30)
  %op.rdx100 = add i32 %43, %34
  %op.rdx101 = add i32 %38, %42
  %op.rdx102 = add i32 %op.rdx100, %op.rdx101
  %44 = xor i32 %op.rdx102, %24
  %.not96 = icmp eq i32 %44, -1
  br i1 %.not96, label %45, label %.loopexit

45:                                               ; preds = %21
  %46 = getelementptr inbounds i8, ptr %14, i64 32
  %47 = load i32, ptr %46, align 4
  %48 = xor i32 %47, -1
  %49 = tail call i32 @llvm.bswap.i32(i32 %48)
  %50 = getelementptr inbounds i8, ptr %14, i64 36
  %51 = load <4 x i32>, ptr %50, align 4
  %52 = tail call <4 x i32> @llvm.bswap.v4i32(<4 x i32> %51)
  %53 = insertelement <4 x i32> poison, i32 %49, i64 0
  %54 = shufflevector <4 x i32> %53, <4 x i32> poison, <4 x i32> zeroinitializer
  %55 = xor <4 x i32> %52, %54
  %56 = getelementptr inbounds i8, ptr %14, i64 52
  %57 = load i32, ptr %56, align 4
  %58 = tail call i32 @llvm.bswap.i32(i32 %57)
  %59 = xor i32 %58, %49
  %60 = getelementptr inbounds i8, ptr %14, i64 56
  %61 = load i32, ptr %60, align 4
  %62 = tail call i32 @llvm.bswap.i32(i32 %61)
  %63 = xor i32 %62, %49
  %64 = getelementptr inbounds i8, ptr %14, i64 60
  %65 = load i32, ptr %64, align 4
  %66 = tail call i32 @llvm.bswap.i32(i32 %65)
  %67 = xor i32 %66, %49
  %68 = tail call i32 @llvm.vector.reduce.add.v4i32(<4 x i32> %55)
  %op.rdx = add i32 %68, %59
  %op.rdx98 = add i32 %63, %67
  %op.rdx99 = add i32 %op.rdx, %op.rdx98
  %69 = xor i32 %op.rdx99, %49
  %.not97 = icmp eq i32 %69, -1
  br i1 %.not97, label %70, label %.loopexit

70:                                               ; preds = %45
  %71 = tail call i32 @cli_append_potentially_unwanted(ptr noundef %0, ptr noundef nonnull @.str.1) #7
  br label %.loopexit

.loopexit:                                        ; preds = %16, %45, %21, %9, %1, %70
  %.093 = phi i32 [ %71, %70 ], [ 0, %1 ], [ 0, %9 ], [ 0, %21 ], [ 0, %45 ], [ 0, %16 ]
  ret i32 %.093
}